target datalayout = "e-m:e-p270:32:32-p271:32:32-p272:64:64-i64:64-i128:128-f80:128-n8:16:32:64-S128"
target triple = "x86_64-pc-linux-gnu"

%struct.FormData_pg_enum = type { i32, i32, float, %struct.nameData }
%struct.nameData = type { [64 x i8] }
%struct.HeapTupleData = type { i32, %struct.ItemPointerData, i32, ptr }
%struct.ItemPointerData = type { %struct.BlockIdData, i16 }
%struct.BlockIdData = type { i16, i16 }
%struct.HeapTupleHeaderData = type { %union.anon, %struct.ItemPointerData, i16, i16, i8, [0 x i8] }
%union.anon = type { %struct.HeapTupleFields }
%struct.HeapTupleFields = type { i32, i32, %union.anon.0 }
%union.anon.0 = type { i32 }
%struct.FmgrInfo = type { ptr, i32, i16, i8, i8, i8, ptr, ptr, ptr }
%struct.ScanKeyData = type { i32, i16, i16, i32, i32, %struct.FmgrInfo, i64 }

; Function Attrs: inlinehint nounwind uwtable
define internal ptr @GETSTRUCT(ptr noundef %0) #2 {
  %2 = alloca ptr, align 8
  store ptr %0, ptr %2, align 8
  %3 = load ptr, ptr %2, align 8
  %4 = getelementptr inbounds nuw %struct.HeapTupleData, ptr %3, i32 0, i32 3
  %5 = load ptr, ptr %4, align 8
  %6 = load ptr, ptr %2, align 8
  %7 = getelementptr inbounds nuw %struct.HeapTupleData, ptr %6, i32 0, i32 3
  %8 = load ptr, ptr %7, align 8
  %9 = getelementptr inbounds nuw %struct.HeapTupleHeaderData, ptr %8, i32 0, i32 4
  %10 = load i8, ptr %9, align 2
  %11 = zext i8 %10 to i32
  %12 = sext i32 %11 to i64
  %13 = getelementptr inbounds i8, ptr %5, i64 %12
  ret ptr %13
}

; Function Attrs: inlinehint nounwind uwtable
define internal i64 @ObjectIdGetDatum(i32 noundef %0) #2 {
  %2 = alloca i32, align 4
  store i32 %0, ptr %2, align 4
  %3 = load i32, ptr %2, align 4
  %4 = zext i32 %3 to i64
  ret i64 %4
}

; Function Attrs: nounwind uwtable
define internal ptr @enum_range_internal(i32 noundef %0, i32 noundef %1, i32 noundef %2) #0 {
  %4 = alloca i32, align 4
  %5 = alloca i32, align 4
  %6 = alloca i32, align 4
  %7 = alloca ptr, align 8
  %8 = alloca ptr, align 8
  %9 = alloca ptr, align 8
  %10 = alloca ptr, align 8
  %11 = alloca ptr, align 8
  %12 = alloca %struct.ScanKeyData, align 8
  %13 = alloca ptr, align 8
  %14 = alloca i32, align 4
  %15 = alloca i32, align 4
  %16 = alloca i8, align 1
  %17 = alloca i32, align 4
  %18 = alloca i32, align 4
  store i32 %0, ptr %4, align 4
  store i32 %1, ptr %5, align 4
  store i32 %2, ptr %6, align 4
  call void @llvm.lifetime.start.p0(i64 8, ptr %7) #6
  call void @llvm.lifetime.start.p0(i64 8, ptr %8) #6
  call void @llvm.lifetime.start.p0(i64 8, ptr %9) #6
  call void @llvm.lifetime.start.p0(i64 8, ptr %10) #6
  call void @llvm.lifetime.start.p0(i64 8, ptr %11) #6
  call void @llvm.lifetime.start.p0(i64 72, ptr %12) #6
  call void @llvm.lifetime.start.p0(i64 8, ptr %13) #6
  call void @llvm.lifetime.start.p0(i64 4, ptr %14) #6
  call void @llvm.lifetime.start.p0(i64 4, ptr %15) #6
  call void @llvm.lifetime.start.p0(i64 1, ptr %16) #6
  %19 = load i32, ptr %4, align 4
  %20 = call i64 @ObjectIdGetDatum(i32 noundef %19)
  call void @ScanKeyInit(ptr noundef %12, i16 noundef signext 2, i16 noundef zeroext 3, i32 noundef 184, i64 noundef %20)
  %21 = call ptr @table_open(i32 noundef 3501, i32 noundef 1)
  store ptr %21, ptr %8, align 8
  %22 = call ptr @index_open(i32 noundef 3534, i32 noundef 1)
  store ptr %22, ptr %9, align 8
  %23 = load ptr, ptr %8, align 8
  %24 = load ptr, ptr %9, align 8
  %25 = call ptr @systable_beginscan_ordered(ptr noundef %23, ptr noundef %24, ptr noundef null, i32 noundef 1, ptr noundef %12)
  store ptr %25, ptr %10, align 8
  store i32 64, ptr %14, align 4
  %26 = load i32, ptr %14, align 4
  %27 = sext i32 %26 to i64
  %28 = mul i64 %27, 8
  %29 = call ptr @palloc(i64 noundef %28)
  store ptr %29, ptr %13, align 8
  store i32 0, ptr %15, align 4
  %30 = load i32, ptr %5, align 4
  %31 = icmp ne i32 %30, 0
  %32 = xor i1 %31, true
  %33 = zext i1 %32 to i8
  store i8 %33, ptr %16, align 1
  br label %34

34:                                               ; preds = %85, %3
  %35 = load ptr, ptr %10, align 8
  %36 = call ptr @systable_getnext_ordered(ptr noundef %35, i32 noundef 1)
  store ptr %36, ptr %11, align 8
  %37 = icmp ne ptr %36, null
  br i1 %37, label %38, label %86

38:                                               ; preds = %34
  call void @llvm.lifetime.start.p0(i64 4, ptr %17) #6
  %39 = load ptr, ptr %11, align 8
  %40 = call ptr @GETSTRUCT(ptr noundef %39)
  %41 = getelementptr inbounds nuw %struct.FormData_pg_enum, ptr %40, i32 0, i32 0
  %42 = load i32, ptr %41, align 4
  store i32 %42, ptr %17, align 4
  %43 = load i8, ptr %16, align 1, !range !4, !noundef !5
  %44 = trunc i8 %43 to i1
  br i1 %44, label %50, label %45

45:                                               ; preds = %38
  %46 = load i32, ptr %5, align 4
  %47 = load i32, ptr %17, align 4
  %48 = icmp eq i32 %46, %47
  br i1 %48, label %49, label %50

49:                                               ; preds = %45
  store i8 1, ptr %16, align 1
  br label %50

50:                                               ; preds = %49, %45, %38
  %51 = load i8, ptr %16, align 1, !range !4, !noundef !5
  %52 = trunc i8 %51 to i1
  br i1 %52, label %53, label %74

53:                                               ; preds = %50
  %54 = load ptr, ptr %11, align 8
  call void @check_safe_enum_use(ptr noundef %54)
  %55 = load i32, ptr %15, align 4
  %56 = load i32, ptr %14, align 4
  %57 = icmp sge i32 %55, %56
  br i1 %57, label %58, label %66

58:                                               ; preds = %53
  %59 = load i32, ptr %14, align 4
  %60 = mul i32 %59, 2
  store i32 %60, ptr %14, align 4
  %61 = load ptr, ptr %13, align 8
  %62 = load i32, ptr %14, align 4
  %63 = sext i32 %62 to i64
  %64 = mul i64 %63, 8
  %65 = call ptr @repalloc(ptr noundef %61, i64 noundef %64)
  store ptr %65, ptr %13, align 8
  br label %66

66:                                               ; preds = %58, %53
  %67 = load i32, ptr %17, align 4
  %68 = call i64 @ObjectIdGetDatum(i32 noundef %67)
  %69 = load ptr, ptr %13, align 8
  %70 = load i32, ptr %15, align 4
  %71 = add i32 %70, 1
  store i32 %71, ptr %15, align 4
  %72 = sext i32 %70 to i64
  %73 = getelementptr inbounds i64, ptr %69, i64 %72
  store i64 %68, ptr %73, align 8
  br label %74

74:                                               ; preds = %66, %50
  %75 = load i32, ptr %6, align 4
  %76 = icmp ne i32 %75, 0
  br i1 %76, label %77, label %82

77:                                               ; preds = %74
  %78 = load i32, ptr %6, align 4
  %79 = load i32, ptr %17, align 4
  %80 = icmp eq i32 %78, %79
  br i1 %80, label %81, label %82

81:                                               ; preds = %77
  store i32 3, ptr %18, align 4
  br label %83

82:                                               ; preds = %77, %74
  store i32 0, ptr %18, align 4
  br label %83

83:                                               ; preds = %82, %81
  call void @llvm.lifetime.end.p0(i64 4, ptr %17) #6
  %84 = load i32, ptr %18, align 4
  switch i32 %84, label %96 [
    i32 0, label %85
    i32 3, label %86
  ]

85:                                               ; preds = %83
  br label %34, !llvm.loop !6

86:                                               ; preds = %83, %34
  %87 = load ptr, ptr %10, align 8
  call void @systable_endscan_ordered(ptr noundef %87)
  %88 = load ptr, ptr %9, align 8
  call void @index_close(ptr noundef %88, i32 noundef 1)
  %89 = load ptr, ptr %8, align 8
  call void @table_close(ptr noundef %89, i32 noundef 1)
  %90 = load ptr, ptr %13, align 8
  %91 = load i32, ptr %15, align 4
  %92 = load i32, ptr %4, align 4
  %93 = call ptr @construct_array(ptr noundef %90, i32 noundef %91, i32 noundef %92, i32 noundef 4, i1 noundef zeroext true, i8 noundef signext 105)
  store ptr %93, ptr %7, align 8
  %94 = load ptr, ptr %13, align 8
  call void @pfree(ptr noundef %94)
  %95 = load ptr, ptr %7, align 8
  store i32 1, ptr %18, align 4
  call void @llvm.lifetime.end.p0(i64 1, ptr %16) #6
  call void @llvm.lifetime.end.p0(i64 4, ptr %15) #6
  call void @llvm.lifetime.end.p0(i64 4, ptr %14) #6
  call void @llvm.lifetime.end.p0(i64 8, ptr %13) #6
  call void @llvm.lifetime.end.p0(i64 72, ptr %12) #6
  call void @llvm.lifetime.end.p0(i64 8, ptr %11) #6
  call void @llvm.lifetime.end.p0(i64 8, ptr %10) #6
  call void @llvm.lifetime.end.p0(i64 8, ptr %9) #6
  call void @llvm.lifetime.end.p0(i64 8, ptr %8) #6
  call void @llvm.lifetime.end.p0(i64 8, ptr %7) #6
  ret ptr %95

96:                                               ; preds = %83
  unreachable
}