; Function Attrs: nounwind uwtable
define internal fastcc ptr @enum_range_internal(i32 noundef range(i32 1, 0) %0, i32 noundef %1, i32 noundef %2) unnamed_addr #0 {
  %4 = alloca %struct.ScanKeyData, align 8
  call void @llvm.lifetime.start.p0(i64 72, ptr nonnull %4) #8
  %5 = zext i32 %0 to i64
  call void @ScanKeyInit(ptr noundef nonnull %4, i16 noundef signext 2, i16 noundef zeroext 3, i32 noundef 184, i64 noundef %5) #8
  %6 = call ptr @table_open(i32 noundef 3501, i32 noundef 1) #8
  %7 = call ptr @index_open(i32 noundef 3534, i32 noundef 1) #8
  %8 = call ptr @systable_beginscan_ordered(ptr noundef %6, ptr noundef %7, ptr noundef null, i32 noundef 1, ptr noundef nonnull %4) #8
  %9 = call ptr @palloc(i64 noundef 512) #8
  %.not = icmp eq i32 %1, 0
  %10 = zext i1 %.not to i8
  %.not44.not = icmp eq i32 %2, 0
  br i1 %.not44.not, label %.split.us, label %.split

.split.us:                                        ; preds = %3
  %11 = call ptr @systable_getnext_ordered(ptr noundef %8, i32 noundef 1) #8
  %.not42.us52 = icmp eq ptr %11, null
  br i1 %.not42.us52, label %.split50.us, label %.lr.ph

.lr.ph:                                           ; preds = %.split.us, %33
  %12 = phi ptr [ %34, %33 ], [ %11, %.split.us ]
  %.031.us56 = phi ptr [ %.2.us, %33 ], [ %9, %.split.us ]
  %.032.us55 = phi i8 [ %.133.us, %33 ], [ %10, %.split.us ]
  %.034.us54 = phi i32 [ %.236.us, %33 ], [ 0, %.split.us ]
  %.037.us53 = phi i32 [ %.138.us, %33 ], [ 64, %.split.us ]
  %13 = getelementptr i8, ptr %12, i64 16
  %.val.us = load ptr, ptr %13, align 8
  %14 = getelementptr inbounds nuw i8, ptr %.val.us, i64 22
  %15 = load i8, ptr %14, align 2
  %16 = zext i8 %15 to i64
  %17 = getelementptr inbounds nuw i8, ptr %.val.us, i64 %16
  %18 = load i32, ptr %17, align 4
  %19 = trunc nuw i8 %.032.us55 to i1
  %20 = icmp ne i32 %1, %18
  %or.cond.not.us = select i1 %19, i1 true, i1 %20
  %.133.us = select i1 %or.cond.not.us, i8 %.032.us55, i8 1
  %21 = trunc nuw i8 %.133.us to i1
  br i1 %21, label %22, label %33

22:                                               ; preds = %.lr.ph
  call fastcc void @check_safe_enum_use(ptr nonnull %.val.us)
  %.not43.us = icmp slt i32 %.034.us54, %.037.us53
  br i1 %.not43.us, label %28, label %23

23:                                               ; preds = %22
  %24 = shl i32 %.037.us53, 1
  %25 = sext i32 %24 to i64
  %26 = shl nsw i64 %25, 3
  %27 = call ptr @repalloc(ptr noundef %.031.us56, i64 noundef %26) #8
  br label %28

28:                                               ; preds = %23, %22
  %.239.us = phi i32 [ %24, %23 ], [ %.037.us53, %22 ]
  %.3.us = phi ptr [ %27, %23 ], [ %.031.us56, %22 ]
  %29 = zext i32 %18 to i64
  %30 = add i32 %.034.us54, 1
  %31 = sext i32 %.034.us54 to i64
  %32 = getelementptr inbounds i64, ptr %.3.us, i64 %31
  store i64 %29, ptr %32, align 8
  br label %33

33:                                               ; preds = %28, %.lr.ph
  %.138.us = phi i32 [ %.239.us, %28 ], [ %.037.us53, %.lr.ph ]
  %.236.us = phi i32 [ %30, %28 ], [ %.034.us54, %.lr.ph ]
  %.2.us = phi ptr [ %.3.us, %28 ], [ %.031.us56, %.lr.ph ]
  %34 = call ptr @systable_getnext_ordered(ptr noundef %8, i32 noundef 1) #8
  %.not42.us = icmp eq ptr %34, null
  br i1 %.not42.us, label %.split50.us, label %.lr.ph

.split:                                           ; preds = %3, %57
  %.037 = phi i32 [ %.138, %57 ], [ 64, %3 ]
  %.034 = phi i32 [ %.236, %57 ], [ 0, %3 ]
  %.032 = phi i8 [ %.133, %57 ], [ %10, %3 ]
  %.031 = phi ptr [ %.2, %57 ], [ %9, %3 ]
  %35 = call ptr @systable_getnext_ordered(ptr noundef %8, i32 noundef 1) #8
  %.not42 = icmp eq ptr %35, null
  br i1 %.not42, label %.split50.us, label %36

36:                                               ; preds = %.split
  %37 = getelementptr i8, ptr %35, i64 16
  %.val = load ptr, ptr %37, align 8
  %38 = getelementptr inbounds nuw i8, ptr %.val, i64 22
  %39 = load i8, ptr %38, align 2
  %40 = zext i8 %39 to i64
  %41 = getelementptr inbounds nuw i8, ptr %.val, i64 %40
  %42 = load i32, ptr %41, align 4
  %43 = trunc nuw i8 %.032 to i1
  %44 = icmp ne i32 %1, %42
  %or.cond.not = select i1 %43, i1 true, i1 %44
  %.133 = select i1 %or.cond.not, i8 %.032, i8 1
  %45 = trunc nuw i8 %.133 to i1
  br i1 %45, label %46, label %57

46:                                               ; preds = %36
  call fastcc void @check_safe_enum_use(ptr nonnull %.val)
  %.not43 = icmp slt i32 %.034, %.037
  br i1 %.not43, label %52, label %47

47:                                               ; preds = %46
  %48 = shl i32 %.037, 1
  %49 = sext i32 %48 to i64
  %50 = shl nsw i64 %49, 3
  %51 = call ptr @repalloc(ptr noundef %.031, i64 noundef %50) #8
  br label %52

52:                                               ; preds = %47, %46
  %.239 = phi i32 [ %48, %47 ], [ %.037, %46 ]
  %.3 = phi ptr [ %51, %47 ], [ %.031, %46 ]
  %53 = zext i32 %42 to i64
  %54 = add i32 %.034, 1
  %55 = sext i32 %.034 to i64
  %56 = getelementptr inbounds i64, ptr %.3, i64 %55
  store i64 %53, ptr %56, align 8
  br label %57

57:                                               ; preds = %52, %36
  %.138 = phi i32 [ %.239, %52 ], [ %.037, %36 ]
  %.236 = phi i32 [ %54, %52 ], [ %.034, %36 ]
  %.2 = phi ptr [ %.3, %52 ], [ %.031, %36 ]
  %58 = icmp eq i32 %2, %42
  br i1 %58, label %.split50.us, label %.split

.split50.us:                                      ; preds = %.split, %57, %33, %.split.us
  %.us-phi = phi i32 [ 0, %.split.us ], [ %.236.us, %33 ], [ %.236, %57 ], [ %.034, %.split ]
  %.us-phi51 = phi ptr [ %9, %.split.us ], [ %.2.us, %33 ], [ %.2, %57 ], [ %.031, %.split ]
  call void @systable_endscan_ordered(ptr noundef %8) #8
  call void @index_close(ptr noundef %7, i32 noundef 1) #8
  call void @table_close(ptr noundef %6, i32 noundef 1) #8
  %59 = call ptr @construct_array(ptr noundef %.us-phi51, i32 noundef %.us-phi, i32 noundef %0, i32 noundef 4, i1 noundef zeroext true, i8 noundef signext 105) #8
  call void @pfree(ptr noundef %.us-phi51) #8
  call void @llvm.lifetime.end.p0(i64 72, ptr nonnull %4) #8
  ret ptr %59
}